target datalayout = "e-m:e-p270:32:32-p271:32:32-p272:64:64-i64:64-i128:128-f80:128-n8:16:32:64-S128"
target triple = "x86_64-pc-linux-gnu"

%"struct.clang::ento::RangeSet::ContainerType" = type { %"class.llvm::SmallVector", %"class.llvm::FoldingSetBase::Node" }
%"class.llvm::SmallVector" = type { %"class.llvm::SmallVectorImpl", %"struct.llvm::SmallVectorStorage" }
%"class.llvm::SmallVectorImpl" = type { %"class.llvm::SmallVectorTemplateBase" }
%"class.llvm::SmallVectorTemplateBase" = type { %"class.llvm::SmallVectorTemplateCommon" }
%"class.llvm::SmallVectorTemplateCommon" = type { %"class.llvm::SmallVectorBase" }
%"class.llvm::SmallVectorBase" = type { ptr, i32, i32 }
%"struct.llvm::SmallVectorStorage" = type { [64 x i8] }
%"class.llvm::FoldingSetBase::Node" = type { ptr }
%"class.clang::ento::RangeSet" = type { ptr }
%"class.clang::ento::Range" = type { %"struct.std::pair" }
%"struct.std::pair" = type { ptr, ptr }
%"class.llvm::APSInt" = type { %"class.llvm::APInt.base", i8, [3 x i8] }
%"class.llvm::APInt.base" = type <{ %union.anon, i32 }>
%union.anon = type { i64 }

@_ZN5clang4ento8RangeSet7Factory8EmptySetE = global %"struct.clang::ento::RangeSet::ContainerType" zeroinitializer, align 8

; Function Attrs: mustprogress nounwind uwtable
define linkonce_odr void @_ZSt9__advanceIPKN5clang4ento5RangeElEvRT_T0_St26random_access_iterator_tag(ptr noundef nonnull align 8 dereferenceable(8) %0, i64 noundef %1) #1 comdat {
  %3 = alloca ptr, align 8
  %4 = alloca i64, align 8
  store ptr %0, ptr %3, align 8
  store i64 %1, ptr %4, align 8
  %5 = load i64, ptr %4, align 8
  %6 = call i1 @llvm.is.constant.i64(i64 %5)
  br i1 %6, label %7, label %14

7:                                                ; preds = %2
  %8 = load i64, ptr %4, align 8
  %9 = icmp eq i64 %8, 1
  br i1 %9, label %10, label %14

10:                                               ; preds = %7
  %11 = load ptr, ptr %3, align 8
  %12 = load ptr, ptr %11, align 8
  %13 = getelementptr inbounds %"class.clang::ento::Range", ptr %12, i32 1
  store ptr %13, ptr %11, align 8
  br label %30

14:                                               ; preds = %7, %2
  %15 = load i64, ptr %4, align 8
  %16 = call i1 @llvm.is.constant.i64(i64 %15)
  br i1 %16, label %17, label %24

17:                                               ; preds = %14
  %18 = load i64, ptr %4, align 8
  %19 = icmp eq i64 %18, -1
  br i1 %19, label %20, label %24

20:                                               ; preds = %17
  %21 = load ptr, ptr %3, align 8
  %22 = load ptr, ptr %21, align 8
  %23 = getelementptr inbounds %"class.clang::ento::Range", ptr %22, i32 -1
  store ptr %23, ptr %21, align 8
  br label %29

24:                                               ; preds = %17, %14
  %25 = load i64, ptr %4, align 8
  %26 = load ptr, ptr %3, align 8
  %27 = load ptr, ptr %26, align 8
  %28 = getelementptr inbounds %"class.clang::ento::Range", ptr %27, i64 %25
  store ptr %28, ptr %26, align 8
  br label %29

29:                                               ; preds = %24, %20
  br label %30

30:                                               ; preds = %29, %10
  ret void
}

; Function Attrs: mustprogress nounwind uwtable
define linkonce_odr void @_ZSt19__iterator_categoryIPKN5clang4ento5RangeEENSt15iterator_traitsIT_E17iterator_categoryERKS6_(ptr noundef nonnull align 8 dereferenceable(8) %0) #1 comdat {
  %2 = alloca ptr, align 8
  store ptr %0, ptr %2, align 8
  ret void
}

; Function Attrs: mustprogress nounwind uwtable
define linkonce_odr hidden noundef ptr @_ZNK4llvm25SmallVectorTemplateCommonIN5clang4ento5RangeEvE5beginEv(ptr noundef nonnull align 8 dereferenceable(16) %0) #1 comdat align 2 {
  %2 = alloca ptr, align 8
  store ptr %0, ptr %2, align 8
  %3 = load ptr, ptr %2, align 8
  %4 = getelementptr inbounds nuw %"class.llvm::SmallVectorBase", ptr %3, i32 0, i32 0
  %5 = load ptr, ptr %4, align 8
  ret ptr %5
}

; Function Attrs: mustprogress nounwind uwtable
define linkonce_odr void @_ZSt7advanceIPKN5clang4ento5RangeElEvRT_T0_(ptr noundef nonnull align 8 dereferenceable(8) %0, i64 noundef %1) #1 comdat {
  %3 = alloca ptr, align 8
  %4 = alloca i64, align 8
  %5 = alloca i64, align 8
  store ptr %0, ptr %3, align 8
  store i64 %1, ptr %4, align 8
  %6 = load i64, ptr %4, align 8
  store i64 %6, ptr %5, align 8
  %7 = load ptr, ptr %3, align 8
  %8 = load i64, ptr %5, align 8
  %9 = load ptr, ptr %3, align 8
  call void @_ZSt19__iterator_categoryIPKN5clang4ento5RangeEENSt15iterator_traitsIT_E17iterator_categoryERKS6_(ptr noundef nonnull align 8 dereferenceable(8) %9)
  call void @_ZSt9__advanceIPKN5clang4ento5RangeElEvRT_T0_St26random_access_iterator_tag(ptr noundef nonnull align 8 dereferenceable(8) %7, i64 noundef %8)
  ret void
}

; Function Attrs: mustprogress nounwind uwtable
define linkonce_odr hidden noundef ptr @_ZNK4llvm25SmallVectorTemplateCommonIN5clang4ento5RangeEvE3endEv(ptr noundef nonnull align 8 dereferenceable(16) %0) #1 comdat align 2 {
  %2 = alloca ptr, align 8
  store ptr %0, ptr %2, align 8
  %3 = load ptr, ptr %2, align 8
  %4 = call noundef ptr @_ZNK4llvm25SmallVectorTemplateCommonIN5clang4ento5RangeEvE5beginEv(ptr noundef nonnull align 8 dereferenceable(16) %3)
  %5 = call noundef i64 @_ZNK4llvm15SmallVectorBaseIjE4sizeEv(ptr noundef nonnull align 8 dereferenceable(16) %3)
  %6 = getelementptr inbounds %"class.clang::ento::Range", ptr %4, i64 %5
  ret ptr %6
}

; Function Attrs: mustprogress nounwind uwtable
define linkonce_odr hidden void @_ZN5clang4ento8RangeSetC2EPNS1_13ContainerTypeE(ptr noundef nonnull align 8 dereferenceable(8) %0, ptr noundef %1) unnamed_addr #1 comdat align 2 {
  %3 = alloca ptr, align 8
  %4 = alloca ptr, align 8
  store ptr %0, ptr %3, align 8
  store ptr %1, ptr %4, align 8
  %5 = load ptr, ptr %3, align 8
  %6 = getelementptr inbounds nuw %"class.clang::ento::RangeSet", ptr %5, i32 0, i32 0
  %7 = load ptr, ptr %4, align 8
  store ptr %7, ptr %6, align 8
  ret void
}

; Function Attrs: mustprogress nounwind uwtable
define linkonce_odr hidden noundef zeroext i1 @_ZNK4llvm5APInt3sltERKS0_(ptr noundef nonnull align 8 dereferenceable(12) %0, ptr noundef nonnull align 8 dereferenceable(12) %1) #1 comdat align 2 {
  %3 = alloca ptr, align 8
  %4 = alloca ptr, align 8
  store ptr %0, ptr %3, align 8
  store ptr %1, ptr %4, align 8
  %5 = load ptr, ptr %3, align 8
  %6 = load ptr, ptr %4, align 8
  %7 = call noundef i32 @_ZNK4llvm5APInt13compareSignedERKS0_(ptr noundef nonnull align 8 dereferenceable(12) %5, ptr noundef nonnull align 8 dereferenceable(12) %6) #15
  %8 = icmp slt i32 %7, 0
  ret i1 %8
}

; Function Attrs: mustprogress nounwind uwtable
define linkonce_odr hidden noundef zeroext i1 @_ZNK4llvm5APInt3ultERKS0_(ptr noundef nonnull align 8 dereferenceable(12) %0, ptr noundef nonnull align 8 dereferenceable(12) %1) #1 comdat align 2 {
  %3 = alloca ptr, align 8
  %4 = alloca ptr, align 8
  store ptr %0, ptr %3, align 8
  store ptr %1, ptr %4, align 8
  %5 = load ptr, ptr %3, align 8
  %6 = load ptr, ptr %4, align 8
  %7 = call noundef i32 @_ZNK4llvm5APInt7compareERKS0_(ptr noundef nonnull align 8 dereferenceable(12) %5, ptr noundef nonnull align 8 dereferenceable(12) %6) #15
  %8 = icmp slt i32 %7, 0
  ret i1 %8
}

; Function Attrs: mustprogress nounwind uwtable
define linkonce_odr hidden noundef nonnull align 8 dereferenceable(13) ptr @_ZNK5clang4ento5Range4FromEv(ptr noundef nonnull align 8 dereferenceable(16) %0) #1 comdat align 2 {
  %2 = alloca ptr, align 8
  store ptr %0, ptr %2, align 8
  %3 = load ptr, ptr %2, align 8
  %4 = getelementptr inbounds nuw %"class.clang::ento::Range", ptr %3, i32 0, i32 0
  %5 = getelementptr inbounds nuw %"struct.std::pair", ptr %4, i32 0, i32 0
  %6 = load ptr, ptr %5, align 8
  ret ptr %6
}

; Function Attrs: mustprogress nounwind uwtable
define linkonce_odr hidden noundef ptr @_ZNK5clang4ento8RangeSet5beginEv(ptr noundef nonnull align 8 dereferenceable(8) %0) #1 comdat align 2 {
  %2 = alloca ptr, align 8
  store ptr %0, ptr %2, align 8
  %3 = load ptr, ptr %2, align 8
  %4 = getelementptr inbounds nuw %"class.clang::ento::RangeSet", ptr %3, i32 0, i32 0
  %5 = load ptr, ptr %4, align 8
  %6 = call noundef ptr @_ZNK4llvm25SmallVectorTemplateCommonIN5clang4ento5RangeEvE5beginEv(ptr noundef nonnull align 8 dereferenceable(16) %5)
  ret ptr %6
}

; Function Attrs: mustprogress nounwind uwtable
define linkonce_odr hidden noundef nonnull align 8 dereferenceable(13) ptr @_ZNK5clang4ento5Range2ToEv(ptr noundef nonnull align 8 dereferenceable(16) %0) #1 comdat align 2 {
  %2 = alloca ptr, align 8
  store ptr %0, ptr %2, align 8
  %3 = load ptr, ptr %2, align 8
  %4 = getelementptr inbounds nuw %"class.clang::ento::Range", ptr %3, i32 0, i32 0
  %5 = getelementptr inbounds nuw %"struct.std::pair", ptr %4, i32 0, i32 1
  %6 = load ptr, ptr %5, align 8
  ret ptr %6
}

; Function Attrs: mustprogress nounwind uwtable
define linkonce_odr noundef ptr @_ZSt4prevIPKN5clang4ento5RangeEET_S5_NSt15iterator_traitsIS5_E15difference_typeE(ptr noundef %0, i64 noundef %1) #1 comdat {
  %3 = alloca ptr, align 8
  %4 = alloca i64, align 8
  store ptr %0, ptr %3, align 8
  store i64 %1, ptr %4, align 8
  %5 = load i64, ptr %4, align 8
  %6 = sub nsw i64 0, %5
  call void @_ZSt7advanceIPKN5clang4ento5RangeElEvRT_T0_(ptr noundef nonnull align 8 dereferenceable(8) %3, i64 noundef %6)
  %7 = load ptr, ptr %3, align 8
  ret ptr %7
}

; Function Attrs: mustprogress nounwind uwtable
define linkonce_odr hidden noundef ptr @_ZNK5clang4ento8RangeSet3endEv(ptr noundef nonnull align 8 dereferenceable(8) %0) #1 comdat align 2 {
  %2 = alloca ptr, align 8
  store ptr %0, ptr %2, align 8
  %3 = load ptr, ptr %2, align 8
  %4 = getelementptr inbounds nuw %"class.clang::ento::RangeSet", ptr %3, i32 0, i32 0
  %5 = load ptr, ptr %4, align 8
  %6 = call noundef ptr @_ZNK4llvm25SmallVectorTemplateCommonIN5clang4ento5RangeEvE3endEv(ptr noundef nonnull align 8 dereferenceable(16) %5)
  ret ptr %6
}

; Function Attrs: mustprogress nounwind uwtable
define linkonce_odr hidden ptr @_ZN5clang4ento8RangeSet7Factory11getEmptySetEv(ptr noundef nonnull align 8 dereferenceable(120) %0) #1 comdat align 2 {
  %2 = alloca %"class.clang::ento::RangeSet", align 8
  %3 = alloca ptr, align 8
  store ptr %0, ptr %3, align 8
  call void @_ZN5clang4ento8RangeSetC2EPNS1_13ContainerTypeE(ptr noundef nonnull align 8 dereferenceable(8) %2, ptr noundef @_ZN5clang4ento8RangeSet7Factory8EmptySetE)
  %4 = getelementptr inbounds nuw %"class.clang::ento::RangeSet", ptr %2, i32 0, i32 0
  %5 = load ptr, ptr %4, align 8
  ret ptr %5
}

; Function Attrs: mustprogress nounwind uwtable
define linkonce_odr hidden noundef zeroext i1 @_ZNK4llvm6APSIntltERKS0_(ptr noundef nonnull align 8 dereferenceable(13) %0, ptr noundef nonnull align 8 dereferenceable(13) %1) #1 comdat align 2 {
  %3 = alloca ptr, align 8
  %4 = alloca ptr, align 8
  store ptr %0, ptr %3, align 8
  store ptr %1, ptr %4, align 8
  %5 = load ptr, ptr %3, align 8
  %6 = getelementptr inbounds nuw %"class.llvm::APSInt", ptr %5, i32 0, i32 1
  %7 = load i8, ptr %6, align 4
  %8 = trunc i8 %7 to i1
  br i1 %8, label %9, label %12

9:                                                ; preds = %2
  %10 = load ptr, ptr %4, align 8
  %11 = call noundef zeroext i1 @_ZNK4llvm5APInt3ultERKS0_(ptr noundef nonnull align 8 dereferenceable(12) %5, ptr noundef nonnull align 8 dereferenceable(12) %10)
  br label %15

12:                                               ; preds = %2
  %13 = load ptr, ptr %4, align 8
  %14 = call noundef zeroext i1 @_ZNK4llvm5APInt3sltERKS0_(ptr noundef nonnull align 8 dereferenceable(12) %5, ptr noundef nonnull align 8 dereferenceable(12) %13)
  br label %15

15:                                               ; preds = %12, %9
  %16 = phi i1 [ %11, %9 ], [ %14, %12 ]
  ret i1 %16
}

; Function Attrs: mustprogress nounwind uwtable
define dso_local noundef nonnull align 8 dereferenceable(13) ptr @_ZNK5clang4ento8RangeSet11getMinValueEv(ptr noundef nonnull align 8 dereferenceable(8) %0) #1 align 2 {
  %2 = alloca ptr, align 8
  store ptr %0, ptr %2, align 8
  %3 = load ptr, ptr %2, align 8
  %4 = call noundef ptr @_ZNK5clang4ento8RangeSet5beginEv(ptr noundef nonnull align 8 dereferenceable(8) %3)
  %5 = call noundef nonnull align 8 dereferenceable(13) ptr @_ZNK5clang4ento5Range4FromEv(ptr noundef nonnull align 8 dereferenceable(16) %4)
  ret ptr %5
}

; Function Attrs: mustprogress nounwind uwtable
define dso_local noundef nonnull align 8 dereferenceable(13) ptr @_ZNK5clang4ento8RangeSet11getMaxValueEv(ptr noundef nonnull align 8 dereferenceable(8) %0) #1 align 2 {
  %2 = alloca ptr, align 8
  store ptr %0, ptr %2, align 8
  %3 = load ptr, ptr %2, align 8
  %4 = call noundef ptr @_ZNK5clang4ento8RangeSet3endEv(ptr noundef nonnull align 8 dereferenceable(8) %3)
  %5 = call noundef ptr @_ZSt4prevIPKN5clang4ento5RangeEET_S5_NSt15iterator_traitsIS5_E15difference_typeE(ptr noundef %4, i64 noundef 1)
  %6 = call noundef nonnull align 8 dereferenceable(13) ptr @_ZNK5clang4ento5Range2ToEv(ptr noundef nonnull align 8 dereferenceable(16) %5)
  ret ptr %6
}

; Function Attrs: mustprogress nounwind uwtable
define linkonce_odr hidden noundef zeroext i1 @_ZNK5clang4ento8RangeSet7isEmptyEv(ptr noundef nonnull align 8 dereferenceable(8) %0) #1 comdat align 2 {
  %2 = alloca ptr, align 8
  store ptr %0, ptr %2, align 8
  %3 = load ptr, ptr %2, align 8
  %4 = getelementptr inbounds nuw %"class.clang::ento::RangeSet", ptr %3, i32 0, i32 0
  %5 = load ptr, ptr %4, align 8
  %6 = call noundef zeroext i1 @_ZNK4llvm15SmallVectorBaseIjE5emptyEv(ptr noundef nonnull align 8 dereferenceable(16) %5)
  ret i1 %6
}

; Function Attrs: mustprogress nounwind uwtable
define dso_local ptr @_ZN5clang4ento8RangeSet7Factory9intersectES1_S1_(ptr noundef nonnull align 8 dereferenceable(120) %0, ptr %1, ptr %2) #1 align 2 {
  %4 = alloca %"class.clang::ento::RangeSet", align 8
  %5 = alloca %"class.clang::ento::RangeSet", align 8
  %6 = alloca %"class.clang::ento::RangeSet", align 8
  %7 = alloca ptr, align 8
  %8 = getelementptr inbounds nuw %"class.clang::ento::RangeSet", ptr %5, i32 0, i32 0
  store ptr %1, ptr %8, align 8
  %9 = getelementptr inbounds nuw %"class.clang::ento::RangeSet", ptr %6, i32 0, i32 0
  store ptr %2, ptr %9, align 8
  store ptr %0, ptr %7, align 8
  %10 = load ptr, ptr %7, align 8
  %11 = call noundef zeroext i1 @_ZNK5clang4ento8RangeSet7isEmptyEv(ptr noundef nonnull align 8 dereferenceable(8) %5)
  br i1 %11, label %22, label %12

12:                                               ; preds = %3
  %13 = call noundef zeroext i1 @_ZNK5clang4ento8RangeSet7isEmptyEv(ptr noundef nonnull align 8 dereferenceable(8) %6)
  br i1 %13, label %22, label %14

14:                                               ; preds = %12
  %15 = call noundef nonnull align 8 dereferenceable(13) ptr @_ZNK5clang4ento8RangeSet11getMaxValueEv(ptr noundef nonnull align 8 dereferenceable(8) %5)
  %16 = call noundef nonnull align 8 dereferenceable(13) ptr @_ZNK5clang4ento8RangeSet11getMinValueEv(ptr noundef nonnull align 8 dereferenceable(8) %6)
  %17 = call noundef zeroext i1 @_ZNK4llvm6APSIntltERKS0_(ptr noundef nonnull align 8 dereferenceable(13) %15, ptr noundef nonnull align 8 dereferenceable(13) %16)
  br i1 %17, label %22, label %18

18:                                               ; preds = %14
  %19 = call noundef nonnull align 8 dereferenceable(13) ptr @_ZNK5clang4ento8RangeSet11getMaxValueEv(ptr noundef nonnull align 8 dereferenceable(8) %6)
  %20 = call noundef nonnull align 8 dereferenceable(13) ptr @_ZNK5clang4ento8RangeSet11getMinValueEv(ptr noundef nonnull align 8 dereferenceable(8) %5)
  %21 = call noundef zeroext i1 @_ZNK4llvm6APSIntltERKS0_(ptr noundef nonnull align 8 dereferenceable(13) %19, ptr noundef nonnull align 8 dereferenceable(13) %20)
  br i1 %21, label %22, label %25

22:                                               ; preds = %18, %14, %12, %3
  %23 = call ptr @_ZN5clang4ento8RangeSet7Factory11getEmptySetEv(ptr noundef nonnull align 8 dereferenceable(120) %10)
  %24 = getelementptr inbounds nuw %"class.clang::ento::RangeSet", ptr %4, i32 0, i32 0
  store ptr %23, ptr %24, align 8
  br label %32

25:                                               ; preds = %18
  %26 = getelementptr inbounds nuw %"class.clang::ento::RangeSet", ptr %5, i32 0, i32 0
  %27 = load ptr, ptr %26, align 8
  %28 = getelementptr inbounds nuw %"class.clang::ento::RangeSet", ptr %6, i32 0, i32 0
  %29 = load ptr, ptr %28, align 8
  %30 = call ptr @_ZN5clang4ento8RangeSet7Factory9intersectERKNS1_13ContainerTypeES5_(ptr noundef nonnull align 8 dereferenceable(120) %10, ptr noundef nonnull align 8 dereferenceable(88) %27, ptr noundef nonnull align 8 dereferenceable(88) %29)
  %31 = getelementptr inbounds nuw %"class.clang::ento::RangeSet", ptr %4, i32 0, i32 0
  store ptr %30, ptr %31, align 8
  br label %32

32:                                               ; preds = %25, %22
  %33 = getelementptr inbounds nuw %"class.clang::ento::RangeSet", ptr %4, i32 0, i32 0
  %34 = load ptr, ptr %33, align 8
  ret ptr %34
}