; Function Attrs: mustprogress nounwind uwtable
define dso_local ptr @_ZN5clang4ento8RangeSet7Factory9intersectES1_S1_(ptr noundef nonnull align 8 dereferenceable(120) %0, ptr nonnull %1, ptr %2) local_unnamed_addr #1 align 2 {
  %4 = tail call noundef zeroext i1 @_ZNK4llvm15SmallVectorBaseIjE5emptyEv(ptr noundef nonnull align 8 dereferenceable(16) %1) #22
  br i1 %4, label %40, label %5

5:                                                ; preds = %3
  %6 = tail call noundef zeroext i1 @_ZNK4llvm15SmallVectorBaseIjE5emptyEv(ptr noundef nonnull align 8 dereferenceable(16) %2) #22
  br i1 %6, label %40, label %7

7:                                                ; preds = %5
  %8 = load ptr, ptr %1, align 8
  %9 = tail call noundef i64 @_ZNK4llvm15SmallVectorBaseIjE4sizeEv(ptr noundef nonnull align 8 dereferenceable(16) %1) #22
  %10 = getelementptr inbounds %"class.clang::ento::Range", ptr %8, i64 %9
  %11 = getelementptr inbounds i8, ptr %10, i64 -8
  %12 = load ptr, ptr %11, align 8
  %13 = load ptr, ptr %2, align 8
  %14 = load ptr, ptr %13, align 8
  %15 = getelementptr inbounds nuw i8, ptr %12, i64 12
  %16 = load i8, ptr %15, align 4
  %17 = trunc i8 %16 to i1
  br i1 %17, label %18, label %20

18:                                               ; preds = %7
  %19 = tail call noundef i32 @_ZNK4llvm5APInt7compareERKS0_(ptr noundef nonnull align 8 dereferenceable(12) %12, ptr noundef nonnull align 8 dereferenceable(12) %14) #23
  br label %_ZNK4llvm6APSIntltERKS0_.exit

20:                                               ; preds = %7
  %21 = tail call noundef i32 @_ZNK4llvm5APInt13compareSignedERKS0_(ptr noundef nonnull align 8 dereferenceable(12) %12, ptr noundef nonnull align 8 dereferenceable(12) %14) #23
  br label %_ZNK4llvm6APSIntltERKS0_.exit

_ZNK4llvm6APSIntltERKS0_.exit:                    ; preds = %18, %20
  %.in.i = phi i32 [ %19, %18 ], [ %21, %20 ]
  %22 = icmp slt i32 %.in.i, 0
  br i1 %22, label %40, label %23

23:                                               ; preds = %_ZNK4llvm6APSIntltERKS0_.exit
  %24 = tail call noundef i64 @_ZNK4llvm15SmallVectorBaseIjE4sizeEv(ptr noundef nonnull align 8 dereferenceable(16) %2) #22
  %25 = getelementptr inbounds %"class.clang::ento::Range", ptr %13, i64 %24
  %26 = getelementptr inbounds i8, ptr %25, i64 -8
  %27 = load ptr, ptr %26, align 8
  %28 = load ptr, ptr %1, align 8
  %29 = load ptr, ptr %28, align 8
  %30 = getelementptr inbounds nuw i8, ptr %27, i64 12
  %31 = load i8, ptr %30, align 4
  %32 = trunc i8 %31 to i1
  br i1 %32, label %33, label %35

33:                                               ; preds = %23
  %34 = tail call noundef i32 @_ZNK4llvm5APInt7compareERKS0_(ptr noundef nonnull align 8 dereferenceable(12) %27, ptr noundef nonnull align 8 dereferenceable(12) %29) #23
  br label %_ZNK4llvm6APSIntltERKS0_.exit2

35:                                               ; preds = %23
  %36 = tail call noundef i32 @_ZNK4llvm5APInt13compareSignedERKS0_(ptr noundef nonnull align 8 dereferenceable(12) %27, ptr noundef nonnull align 8 dereferenceable(12) %29) #23
  br label %_ZNK4llvm6APSIntltERKS0_.exit2

_ZNK4llvm6APSIntltERKS0_.exit2:                   ; preds = %33, %35
  %.in.i1 = phi i32 [ %34, %33 ], [ %36, %35 ]
  %37 = icmp slt i32 %.in.i1, 0
  br i1 %37, label %40, label %38

38:                                               ; preds = %_ZNK4llvm6APSIntltERKS0_.exit2
  %39 = tail call ptr @_ZN5clang4ento8RangeSet7Factory9intersectERKNS1_13ContainerTypeES5_(ptr noundef nonnull align 8 dereferenceable(120) %0, ptr noundef nonnull align 8 dereferenceable(88) %1, ptr noundef nonnull align 8 dereferenceable(88) %2)
  br label %40

40:                                               ; preds = %3, %5, %_ZNK4llvm6APSIntltERKS0_.exit, %_ZNK4llvm6APSIntltERKS0_.exit2, %38
  %.sroa.0.0 = phi ptr [ %39, %38 ], [ @_ZN5clang4ento8RangeSet7Factory8EmptySetE, %_ZNK4llvm6APSIntltERKS0_.exit2 ], [ @_ZN5clang4ento8RangeSet7Factory8EmptySetE, %_ZNK4llvm6APSIntltERKS0_.exit ], [ @_ZN5clang4ento8RangeSet7Factory8EmptySetE, %5 ], [ @_ZN5clang4ento8RangeSet7Factory8EmptySetE, %3 ]
  ret ptr %.sroa.0.0
}